target datalayout = "e-m:e-p270:32:32-p271:32:32-p272:64:64-i64:64-i128:128-f80:128-n8:16:32:64-S128"
target triple = "x86_64-pc-linux-gnu"

%struct.SDL_Keyboard = type { ptr, i16, [512 x i8], [512 x i8], ptr, i32, i8, i64, i32 }
%struct.SDL_Keymap = type { ptr, ptr, i8, i8, i8, i8, i8 }

@SDL_keyboard = internal global %struct.SDL_Keyboard zeroinitializer, align 8

; Function Attrs: nounwind uwtable
define hidden ptr @SDL_GetCurrentKeymap() #0 {
  %1 = alloca ptr, align 8
  %2 = alloca ptr, align 8
  %3 = alloca ptr, align 8
  %4 = alloca i32, align 4
  call void @llvm.lifetime.start.p0(i64 8, ptr %2) #6
  store ptr @SDL_keyboard, ptr %2, align 8
  call void @llvm.lifetime.start.p0(i64 8, ptr %3) #6
  %5 = load ptr, ptr getelementptr inbounds nuw (%struct.SDL_Keyboard, ptr @SDL_keyboard, i32 0, i32 4), align 8
  store ptr %5, ptr %3, align 8
  %6 = load ptr, ptr %3, align 8
  %7 = icmp ne ptr %6, null
  br i1 %7, label %8, label %14

8:                                                ; preds = %0
  %9 = load ptr, ptr %3, align 8
  %10 = getelementptr inbounds nuw %struct.SDL_Keymap, ptr %9, i32 0, i32 6
  %11 = load i8, ptr %10, align 4, !range !3, !noundef !4
  %12 = trunc i8 %11 to i1
  br i1 %12, label %13, label %14

13:                                               ; preds = %8
  store ptr null, ptr %1, align 8
  store i32 1, ptr %4, align 4
  br label %33

14:                                               ; preds = %8, %0
  %15 = load ptr, ptr %2, align 8
  %16 = getelementptr inbounds nuw %struct.SDL_Keyboard, ptr %15, i32 0, i32 5
  %17 = load i32, ptr %16, align 8
  %18 = and i32 %17, 4
  %19 = icmp ne i32 %18, 0
  br i1 %19, label %20, label %29

20:                                               ; preds = %14
  %21 = load ptr, ptr %3, align 8
  %22 = icmp ne ptr %21, null
  br i1 %22, label %23, label %29

23:                                               ; preds = %20
  %24 = load ptr, ptr %3, align 8
  %25 = getelementptr inbounds nuw %struct.SDL_Keymap, ptr %24, i32 0, i32 5
  %26 = load i8, ptr %25, align 1, !range !3, !noundef !4
  %27 = trunc i8 %26 to i1
  br i1 %27, label %29, label %28

28:                                               ; preds = %23
  store ptr null, ptr %1, align 8
  store i32 1, ptr %4, align 4
  br label %33

29:                                               ; preds = %23, %20, %14
  %30 = load ptr, ptr %2, align 8
  %31 = getelementptr inbounds nuw %struct.SDL_Keyboard, ptr %30, i32 0, i32 4
  %32 = load ptr, ptr %31, align 8
  store ptr %32, ptr %1, align 8
  store i32 1, ptr %4, align 4
  br label %33

33:                                               ; preds = %29, %28, %13
  call void @llvm.lifetime.end.p0(i64 8, ptr %3) #6
  call void @llvm.lifetime.end.p0(i64 8, ptr %2) #6
  %34 = load ptr, ptr %1, align 8
  ret ptr %34
}