; Function Attrs: mustprogress nofree norecurse nosync nounwind willreturn memory(read, inaccessiblemem: none) uwtable
define hidden ptr @SDL_GetCurrentKeymap() local_unnamed_addr #8 {
  %1 = load ptr, ptr getelementptr inbounds nuw (i8, ptr @SDL_keyboard, i64 1040), align 8
  %.not = icmp eq ptr %1, null
  br i1 %.not, label %.thread, label %2

2:                                                ; preds = %0
  %3 = getelementptr inbounds nuw i8, ptr %1, i64 20
  %4 = load i8, ptr %3, align 4, !range !6, !noundef !7
  %5 = trunc nuw i8 %4 to i1
  br i1 %5, label %13, label %6

6:                                                ; preds = %2
  %7 = load i32, ptr getelementptr inbounds nuw (i8, ptr @SDL_keyboard, i64 1048), align 8
  %8 = and i32 %7, 4
  %.not10 = icmp eq i32 %8, 0
  br i1 %.not10, label %.thread, label %9

9:                                                ; preds = %6
  %10 = getelementptr inbounds nuw i8, ptr %1, i64 19
  %11 = load i8, ptr %10, align 1, !range !6, !noundef !7
  %12 = trunc nuw i8 %11 to i1
  br i1 %12, label %.thread, label %13

.thread:                                          ; preds = %0, %9, %6
  br label %13

13:                                               ; preds = %9, %2, %.thread
  %.0 = phi ptr [ %1, %.thread ], [ null, %2 ], [ null, %9 ]
  ret ptr %.0
}